target datalayout = "e-m:e-p270:32:32-p271:32:32-p272:64:64-i64:64-i128:128-f80:128-n8:16:32:64-S128"
target triple = "x86_64-pc-linux-gnu"

%struct.psset_bin_stats_s = type { i64, i64, i64 }
%struct.psset_stats_s = type { [64 x [2 x %struct.psset_bin_stats_s]], [2 x %struct.psset_bin_stats_s], [2 x %struct.psset_bin_stats_s] }

; Function Attrs: nounwind uwtable
define internal void @psset_bin_stats_accum(ptr noundef %0, ptr noundef %1) #0 {
  %3 = alloca ptr, align 8
  %4 = alloca ptr, align 8
  store ptr %0, ptr %3, align 8, !tbaa !26
  store ptr %1, ptr %4, align 8, !tbaa !26
  %5 = load ptr, ptr %4, align 8, !tbaa !26
  %6 = getelementptr inbounds nuw %struct.psset_bin_stats_s, ptr %5, i32 0, i32 0
  %7 = load i64, ptr %6, align 8, !tbaa !28
  %8 = load ptr, ptr %3, align 8, !tbaa !26
  %9 = getelementptr inbounds nuw %struct.psset_bin_stats_s, ptr %8, i32 0, i32 0
  %10 = load i64, ptr %9, align 8, !tbaa !28
  %11 = add i64 %10, %7
  store i64 %11, ptr %9, align 8, !tbaa !28
  %12 = load ptr, ptr %4, align 8, !tbaa !26
  %13 = getelementptr inbounds nuw %struct.psset_bin_stats_s, ptr %12, i32 0, i32 1
  %14 = load i64, ptr %13, align 8, !tbaa !30
  %15 = load ptr, ptr %3, align 8, !tbaa !26
  %16 = getelementptr inbounds nuw %struct.psset_bin_stats_s, ptr %15, i32 0, i32 1
  %17 = load i64, ptr %16, align 8, !tbaa !30
  %18 = add i64 %17, %14
  store i64 %18, ptr %16, align 8, !tbaa !30
  %19 = load ptr, ptr %4, align 8, !tbaa !26
  %20 = getelementptr inbounds nuw %struct.psset_bin_stats_s, ptr %19, i32 0, i32 2
  %21 = load i64, ptr %20, align 8, !tbaa !31
  %22 = load ptr, ptr %3, align 8, !tbaa !26
  %23 = getelementptr inbounds nuw %struct.psset_bin_stats_s, ptr %22, i32 0, i32 2
  %24 = load i64, ptr %23, align 8, !tbaa !31
  %25 = add i64 %24, %21
  store i64 %25, ptr %23, align 8, !tbaa !31
  ret void
}

; Function Attrs: nounwind uwtable
define hidden void @je_psset_stats_accum(ptr noundef %0, ptr noundef %1) #0 {
  %3 = alloca ptr, align 8
  %4 = alloca ptr, align 8
  %5 = alloca i32, align 4
  store ptr %0, ptr %3, align 8, !tbaa !23
  store ptr %1, ptr %4, align 8, !tbaa !23
  %6 = load ptr, ptr %3, align 8, !tbaa !23
  %7 = getelementptr inbounds nuw %struct.psset_stats_s, ptr %6, i32 0, i32 1
  %8 = getelementptr inbounds [2 x %struct.psset_bin_stats_s], ptr %7, i64 0, i64 0
  %9 = load ptr, ptr %4, align 8, !tbaa !23
  %10 = getelementptr inbounds nuw %struct.psset_stats_s, ptr %9, i32 0, i32 1
  %11 = getelementptr inbounds [2 x %struct.psset_bin_stats_s], ptr %10, i64 0, i64 0
  call void @psset_bin_stats_accum(ptr noundef %8, ptr noundef %11)
  %12 = load ptr, ptr %3, align 8, !tbaa !23
  %13 = getelementptr inbounds nuw %struct.psset_stats_s, ptr %12, i32 0, i32 1
  %14 = getelementptr inbounds [2 x %struct.psset_bin_stats_s], ptr %13, i64 0, i64 1
  %15 = load ptr, ptr %4, align 8, !tbaa !23
  %16 = getelementptr inbounds nuw %struct.psset_stats_s, ptr %15, i32 0, i32 1
  %17 = getelementptr inbounds [2 x %struct.psset_bin_stats_s], ptr %16, i64 0, i64 1
  call void @psset_bin_stats_accum(ptr noundef %14, ptr noundef %17)
  %18 = load ptr, ptr %3, align 8, !tbaa !23
  %19 = getelementptr inbounds nuw %struct.psset_stats_s, ptr %18, i32 0, i32 2
  %20 = getelementptr inbounds [2 x %struct.psset_bin_stats_s], ptr %19, i64 0, i64 0
  %21 = load ptr, ptr %4, align 8, !tbaa !23
  %22 = getelementptr inbounds nuw %struct.psset_stats_s, ptr %21, i32 0, i32 2
  %23 = getelementptr inbounds [2 x %struct.psset_bin_stats_s], ptr %22, i64 0, i64 0
  call void @psset_bin_stats_accum(ptr noundef %20, ptr noundef %23)
  %24 = load ptr, ptr %3, align 8, !tbaa !23
  %25 = getelementptr inbounds nuw %struct.psset_stats_s, ptr %24, i32 0, i32 2
  %26 = getelementptr inbounds [2 x %struct.psset_bin_stats_s], ptr %25, i64 0, i64 1
  %27 = load ptr, ptr %4, align 8, !tbaa !23
  %28 = getelementptr inbounds nuw %struct.psset_stats_s, ptr %27, i32 0, i32 2
  %29 = getelementptr inbounds [2 x %struct.psset_bin_stats_s], ptr %28, i64 0, i64 1
  call void @psset_bin_stats_accum(ptr noundef %26, ptr noundef %29)
  call void @llvm.lifetime.start.p0(i64 4, ptr %5) #8
  store i32 0, ptr %5, align 4, !tbaa !9
  br label %30

30:                                               ; preds = %59, %2
  %31 = load i32, ptr %5, align 4, !tbaa !9
  %32 = icmp ult i32 %31, 64
  br i1 %32, label %34, label %33

33:                                               ; preds = %30
  call void @llvm.lifetime.end.p0(i64 4, ptr %5) #8
  br label %62

34:                                               ; preds = %30
  %35 = load ptr, ptr %3, align 8, !tbaa !23
  %36 = getelementptr inbounds nuw %struct.psset_stats_s, ptr %35, i32 0, i32 0
  %37 = load i32, ptr %5, align 4, !tbaa !9
  %38 = zext i32 %37 to i64
  %39 = getelementptr inbounds nuw [64 x [2 x %struct.psset_bin_stats_s]], ptr %36, i64 0, i64 %38
  %40 = getelementptr inbounds [2 x %struct.psset_bin_stats_s], ptr %39, i64 0, i64 0
  %41 = load ptr, ptr %4, align 8, !tbaa !23
  %42 = getelementptr inbounds nuw %struct.psset_stats_s, ptr %41, i32 0, i32 0
  %43 = load i32, ptr %5, align 4, !tbaa !9
  %44 = zext i32 %43 to i64
  %45 = getelementptr inbounds nuw [64 x [2 x %struct.psset_bin_stats_s]], ptr %42, i64 0, i64 %44
  %46 = getelementptr inbounds [2 x %struct.psset_bin_stats_s], ptr %45, i64 0, i64 0
  call void @psset_bin_stats_accum(ptr noundef %40, ptr noundef %46)
  %47 = load ptr, ptr %3, align 8, !tbaa !23
  %48 = getelementptr inbounds nuw %struct.psset_stats_s, ptr %47, i32 0, i32 0
  %49 = load i32, ptr %5, align 4, !tbaa !9
  %50 = zext i32 %49 to i64
  %51 = getelementptr inbounds nuw [64 x [2 x %struct.psset_bin_stats_s]], ptr %48, i64 0, i64 %50
  %52 = getelementptr inbounds [2 x %struct.psset_bin_stats_s], ptr %51, i64 0, i64 1
  %53 = load ptr, ptr %4, align 8, !tbaa !23
  %54 = getelementptr inbounds nuw %struct.psset_stats_s, ptr %53, i32 0, i32 0
  %55 = load i32, ptr %5, align 4, !tbaa !9
  %56 = zext i32 %55 to i64
  %57 = getelementptr inbounds nuw [64 x [2 x %struct.psset_bin_stats_s]], ptr %54, i64 0, i64 %56
  %58 = getelementptr inbounds [2 x %struct.psset_bin_stats_s], ptr %57, i64 0, i64 1
  call void @psset_bin_stats_accum(ptr noundef %52, ptr noundef %58)
  br label %59

59:                                               ; preds = %34
  %60 = load i32, ptr %5, align 4, !tbaa !9
  %61 = add i32 %60, 1
  store i32 %61, ptr %5, align 4, !tbaa !9
  br label %30, !llvm.loop !25

62:                                               ; preds = %33
  ret void
}